target datalayout = "e-m:e-p270:32:32-p271:32:32-p272:64:64-i64:64-i128:128-f80:128-n8:16:32:64-S128"
target triple = "x86_64-pc-linux-gnu"

%struct.jpeg_compress_struct = type { ptr, ptr, ptr, ptr, i32, i32, ptr, i32, i32, i32, i32, double, i32, i32, i32, ptr, [4 x ptr], [4 x ptr], [4 x ptr], [16 x i8], [16 x i8], [16 x i8], i32, ptr, i32, i32, i32, i32, i32, i32, i32, i32, i32, i8, i8, i8, i16, i16, i32, i32, i32, i32, i32, i32, i32, [4 x ptr], i32, i32, i32, [10 x i32], i32, i32, i32, i32, ptr, ptr, ptr, ptr, ptr, ptr, ptr, ptr, ptr, ptr, i32 }
%struct.jpeg_memory_mgr = type { ptr, ptr, ptr, ptr, ptr, ptr, ptr, ptr, ptr, ptr, ptr, i64, i64 }
%struct.phuff_entropy_encoder = type { %struct.jpeg_entropy_encoder, i32, ptr, i64, i32, i32, ptr, [4 x i32], i32, i32, i32, ptr, i32, i32, [4 x ptr], [4 x ptr] }
%struct.jpeg_entropy_encoder = type { ptr, ptr, ptr }
%struct.jpeg_component_info = type { i32, i32, i32, i32, i32, i32, i32, i32, i32, i32, i32, i32, i32, i32, i32, i32, i32, i32, i32, ptr, ptr }
%struct.jpeg_error_mgr = type { ptr, ptr, ptr, ptr, ptr, i32, %union.anon, i32, i64, ptr, i32, ptr, i32, i32 }
%union.anon = type { [8 x i32], [48 x i8] }

; Function Attrs: nounwind uwtable
define internal void @start_pass_phuff(ptr noundef %0, i32 noundef %1) #0 {
  %3 = alloca ptr, align 8
  %4 = alloca i32, align 4
  %5 = alloca ptr, align 8
  %6 = alloca i32, align 4
  %7 = alloca i32, align 4
  %8 = alloca i32, align 4
  %9 = alloca ptr, align 8
  store ptr %0, ptr %3, align 8
  store i32 %1, ptr %4, align 4
  %10 = load ptr, ptr %3, align 8
  %11 = getelementptr inbounds %struct.jpeg_compress_struct, ptr %10, i32 0, i32 62
  %12 = load ptr, ptr %11, align 8
  store ptr %12, ptr %5, align 8
  %13 = load ptr, ptr %3, align 8
  %14 = load ptr, ptr %5, align 8
  %15 = getelementptr inbounds %struct.phuff_entropy_encoder, ptr %14, i32 0, i32 6
  store ptr %13, ptr %15, align 8
  %16 = load i32, ptr %4, align 4
  %17 = load ptr, ptr %5, align 8
  %18 = getelementptr inbounds %struct.phuff_entropy_encoder, ptr %17, i32 0, i32 1
  store i32 %16, ptr %18, align 8
  %19 = load ptr, ptr %3, align 8
  %20 = getelementptr inbounds %struct.jpeg_compress_struct, ptr %19, i32 0, i32 50
  %21 = load i32, ptr %20, align 4
  %22 = icmp eq i32 %21, 0
  %23 = zext i1 %22 to i32
  store i32 %23, ptr %6, align 4
  %24 = load ptr, ptr %3, align 8
  %25 = getelementptr inbounds %struct.jpeg_compress_struct, ptr %24, i32 0, i32 52
  %26 = load i32, ptr %25, align 4
  %27 = icmp eq i32 %26, 0
  br i1 %27, label %28, label %40

28:                                               ; preds = %2
  %29 = load i32, ptr %6, align 4
  %30 = icmp ne i32 %29, 0
  br i1 %30, label %31, label %35

31:                                               ; preds = %28
  %32 = load ptr, ptr %5, align 8
  %33 = getelementptr inbounds %struct.phuff_entropy_encoder, ptr %32, i32 0, i32 0
  %34 = getelementptr inbounds %struct.jpeg_entropy_encoder, ptr %33, i32 0, i32 1
  store ptr @encode_mcu_DC_first, ptr %34, align 8
  br label %39

35:                                               ; preds = %28
  %36 = load ptr, ptr %5, align 8
  %37 = getelementptr inbounds %struct.phuff_entropy_encoder, ptr %36, i32 0, i32 0
  %38 = getelementptr inbounds %struct.jpeg_entropy_encoder, ptr %37, i32 0, i32 1
  store ptr @encode_mcu_AC_first, ptr %38, align 8
  br label %39

39:                                               ; preds = %35, %31
  br label %67

40:                                               ; preds = %2
  %41 = load i32, ptr %6, align 4
  %42 = icmp ne i32 %41, 0
  br i1 %42, label %43, label %47

43:                                               ; preds = %40
  %44 = load ptr, ptr %5, align 8
  %45 = getelementptr inbounds %struct.phuff_entropy_encoder, ptr %44, i32 0, i32 0
  %46 = getelementptr inbounds %struct.jpeg_entropy_encoder, ptr %45, i32 0, i32 1
  store ptr @encode_mcu_DC_refine, ptr %46, align 8
  br label %66

47:                                               ; preds = %40
  %48 = load ptr, ptr %5, align 8
  %49 = getelementptr inbounds %struct.phuff_entropy_encoder, ptr %48, i32 0, i32 0
  %50 = getelementptr inbounds %struct.jpeg_entropy_encoder, ptr %49, i32 0, i32 1
  store ptr @encode_mcu_AC_refine, ptr %50, align 8
  %51 = load ptr, ptr %5, align 8
  %52 = getelementptr inbounds %struct.phuff_entropy_encoder, ptr %51, i32 0, i32 11
  %53 = load ptr, ptr %52, align 8
  %54 = icmp eq ptr %53, null
  br i1 %54, label %55, label %65

55:                                               ; preds = %47
  %56 = load ptr, ptr %3, align 8
  %57 = getelementptr inbounds %struct.jpeg_compress_struct, ptr %56, i32 0, i32 1
  %58 = load ptr, ptr %57, align 8
  %59 = getelementptr inbounds %struct.jpeg_memory_mgr, ptr %58, i32 0, i32 0
  %60 = load ptr, ptr %59, align 8
  %61 = load ptr, ptr %3, align 8
  %62 = call ptr %60(ptr noundef %61, i32 noundef 1, i64 noundef 1000)
  %63 = load ptr, ptr %5, align 8
  %64 = getelementptr inbounds %struct.phuff_entropy_encoder, ptr %63, i32 0, i32 11
  store ptr %62, ptr %64, align 8
  br label %65

65:                                               ; preds = %55, %47
  br label %66

66:                                               ; preds = %65, %43
  br label %67

67:                                               ; preds = %66, %39
  %68 = load i32, ptr %4, align 4
  %69 = icmp ne i32 %68, 0
  br i1 %69, label %70, label %74

70:                                               ; preds = %67
  %71 = load ptr, ptr %5, align 8
  %72 = getelementptr inbounds %struct.phuff_entropy_encoder, ptr %71, i32 0, i32 0
  %73 = getelementptr inbounds %struct.jpeg_entropy_encoder, ptr %72, i32 0, i32 2
  store ptr @finish_pass_gather_phuff, ptr %73, align 8
  br label %78

74:                                               ; preds = %67
  %75 = load ptr, ptr %5, align 8
  %76 = getelementptr inbounds %struct.phuff_entropy_encoder, ptr %75, i32 0, i32 0
  %77 = getelementptr inbounds %struct.jpeg_entropy_encoder, ptr %76, i32 0, i32 2
  store ptr @finish_pass_phuff, ptr %77, align 8
  br label %78

78:                                               ; preds = %74, %70
  store i32 0, ptr %7, align 4
  br label %79

79:                                               ; preds = %179, %78
  %80 = load i32, ptr %7, align 4
  %81 = load ptr, ptr %3, align 8
  %82 = getelementptr inbounds %struct.jpeg_compress_struct, ptr %81, i32 0, i32 44
  %83 = load i32, ptr %82, align 4
  %84 = icmp slt i32 %80, %83
  br i1 %84, label %85, label %182

85:                                               ; preds = %79
  %86 = load ptr, ptr %3, align 8
  %87 = getelementptr inbounds %struct.jpeg_compress_struct, ptr %86, i32 0, i32 45
  %88 = load i32, ptr %7, align 4
  %89 = sext i32 %88 to i64
  %90 = getelementptr inbounds [4 x ptr], ptr %87, i64 0, i64 %89
  %91 = load ptr, ptr %90, align 8
  store ptr %91, ptr %9, align 8
  %92 = load ptr, ptr %5, align 8
  %93 = getelementptr inbounds %struct.phuff_entropy_encoder, ptr %92, i32 0, i32 7
  %94 = load i32, ptr %7, align 4
  %95 = sext i32 %94 to i64
  %96 = getelementptr inbounds [4 x i32], ptr %93, i64 0, i64 %95
  store i32 0, ptr %96, align 4
  %97 = load i32, ptr %6, align 4
  %98 = icmp ne i32 %97, 0
  br i1 %98, label %99, label %109

99:                                               ; preds = %85
  %100 = load ptr, ptr %3, align 8
  %101 = getelementptr inbounds %struct.jpeg_compress_struct, ptr %100, i32 0, i32 52
  %102 = load i32, ptr %101, align 4
  %103 = icmp ne i32 %102, 0
  br i1 %103, label %104, label %105

104:                                              ; preds = %99
  br label %179

105:                                              ; preds = %99
  %106 = load ptr, ptr %9, align 8
  %107 = getelementptr inbounds %struct.jpeg_component_info, ptr %106, i32 0, i32 5
  %108 = load i32, ptr %107, align 4
  store i32 %108, ptr %8, align 4
  br label %115

109:                                              ; preds = %85
  %110 = load ptr, ptr %9, align 8
  %111 = getelementptr inbounds %struct.jpeg_component_info, ptr %110, i32 0, i32 6
  %112 = load i32, ptr %111, align 8
  store i32 %112, ptr %8, align 4
  %113 = load ptr, ptr %5, align 8
  %114 = getelementptr inbounds %struct.phuff_entropy_encoder, ptr %113, i32 0, i32 8
  store i32 %112, ptr %114, align 8
  br label %115

115:                                              ; preds = %109, %105
  %116 = load i32, ptr %4, align 4
  %117 = icmp ne i32 %116, 0
  br i1 %117, label %118, label %169

118:                                              ; preds = %115
  %119 = load i32, ptr %8, align 4
  %120 = icmp slt i32 %119, 0
  br i1 %120, label %124, label %121

121:                                              ; preds = %118
  %122 = load i32, ptr %8, align 4
  %123 = icmp sge i32 %122, 4
  br i1 %123, label %124, label %141

124:                                              ; preds = %121, %118
  %125 = load ptr, ptr %3, align 8
  %126 = getelementptr inbounds %struct.jpeg_compress_struct, ptr %125, i32 0, i32 0
  %127 = load ptr, ptr %126, align 8
  %128 = getelementptr inbounds %struct.jpeg_error_mgr, ptr %127, i32 0, i32 5
  store i32 50, ptr %128, align 8
  %129 = load i32, ptr %8, align 4
  %130 = load ptr, ptr %3, align 8
  %131 = getelementptr inbounds %struct.jpeg_compress_struct, ptr %130, i32 0, i32 0
  %132 = load ptr, ptr %131, align 8
  %133 = getelementptr inbounds %struct.jpeg_error_mgr, ptr %132, i32 0, i32 6
  %134 = getelementptr inbounds [8 x i32], ptr %133, i64 0, i64 0
  store i32 %129, ptr %134, align 4
  %135 = load ptr, ptr %3, align 8
  %136 = getelementptr inbounds %struct.jpeg_compress_struct, ptr %135, i32 0, i32 0
  %137 = load ptr, ptr %136, align 8
  %138 = getelementptr inbounds %struct.jpeg_error_mgr, ptr %137, i32 0, i32 0
  %139 = load ptr, ptr %138, align 8
  %140 = load ptr, ptr %3, align 8
  call void %139(ptr noundef %140)
  br label %141

141:                                              ; preds = %124, %121
  %142 = load ptr, ptr %5, align 8
  %143 = getelementptr inbounds %struct.phuff_entropy_encoder, ptr %142, i32 0, i32 15
  %144 = load i32, ptr %8, align 4
  %145 = sext i32 %144 to i64
  %146 = getelementptr inbounds [4 x ptr], ptr %143, i64 0, i64 %145
  %147 = load ptr, ptr %146, align 8
  %148 = icmp eq ptr %147, null
  br i1 %148, label %149, label %162

149:                                              ; preds = %141
  %150 = load ptr, ptr %3, align 8
  %151 = getelementptr inbounds %struct.jpeg_compress_struct, ptr %150, i32 0, i32 1
  %152 = load ptr, ptr %151, align 8
  %153 = getelementptr inbounds %struct.jpeg_memory_mgr, ptr %152, i32 0, i32 0
  %154 = load ptr, ptr %153, align 8
  %155 = load ptr, ptr %3, align 8
  %156 = call ptr %154(ptr noundef %155, i32 noundef 1, i64 noundef 2056)
  %157 = load ptr, ptr %5, align 8
  %158 = getelementptr inbounds %struct.phuff_entropy_encoder, ptr %157, i32 0, i32 15
  %159 = load i32, ptr %8, align 4
  %160 = sext i32 %159 to i64
  %161 = getelementptr inbounds [4 x ptr], ptr %158, i64 0, i64 %160
  store ptr %156, ptr %161, align 8
  br label %162

162:                                              ; preds = %149, %141
  %163 = load ptr, ptr %5, align 8
  %164 = getelementptr inbounds %struct.phuff_entropy_encoder, ptr %163, i32 0, i32 15
  %165 = load i32, ptr %8, align 4
  %166 = sext i32 %165 to i64
  %167 = getelementptr inbounds [4 x ptr], ptr %164, i64 0, i64 %166
  %168 = load ptr, ptr %167, align 8
  call void @llvm.memset.p0.i64(ptr align 1 %168, i8 0, i64 2056, i1 false)
  br label %178

169:                                              ; preds = %115
  %170 = load ptr, ptr %3, align 8
  %171 = load i32, ptr %6, align 4
  %172 = load i32, ptr %8, align 4
  %173 = load ptr, ptr %5, align 8
  %174 = getelementptr inbounds %struct.phuff_entropy_encoder, ptr %173, i32 0, i32 14
  %175 = load i32, ptr %8, align 4
  %176 = sext i32 %175 to i64
  %177 = getelementptr inbounds [4 x ptr], ptr %174, i64 0, i64 %176
  call void @jMkCDerived(ptr noundef %170, i32 noundef %171, i32 noundef %172, ptr noundef %177)
  br label %178

178:                                              ; preds = %169, %162
  br label %179

179:                                              ; preds = %178, %104
  %180 = load i32, ptr %7, align 4
  %181 = add nsw i32 %180, 1
  store i32 %181, ptr %7, align 4
  br label %79, !llvm.loop !8

182:                                              ; preds = %79
  %183 = load ptr, ptr %5, align 8
  %184 = getelementptr inbounds %struct.phuff_entropy_encoder, ptr %183, i32 0, i32 9
  store i32 0, ptr %184, align 4
  %185 = load ptr, ptr %5, align 8
  %186 = getelementptr inbounds %struct.phuff_entropy_encoder, ptr %185, i32 0, i32 10
  store i32 0, ptr %186, align 8
  %187 = load ptr, ptr %5, align 8
  %188 = getelementptr inbounds %struct.phuff_entropy_encoder, ptr %187, i32 0, i32 4
  store i32 0, ptr %188, align 8
  %189 = load ptr, ptr %5, align 8
  %190 = getelementptr inbounds %struct.phuff_entropy_encoder, ptr %189, i32 0, i32 5
  store i32 0, ptr %190, align 4
  %191 = load ptr, ptr %3, align 8
  %192 = getelementptr inbounds %struct.jpeg_compress_struct, ptr %191, i32 0, i32 30
  %193 = load i32, ptr %192, align 8
  %194 = load ptr, ptr %5, align 8
  %195 = getelementptr inbounds %struct.phuff_entropy_encoder, ptr %194, i32 0, i32 12
  store i32 %193, ptr %195, align 8
  %196 = load ptr, ptr %5, align 8
  %197 = getelementptr inbounds %struct.phuff_entropy_encoder, ptr %196, i32 0, i32 13
  store i32 0, ptr %197, align 4
  ret void
}