; Function Attrs: nounwind uwtable
define internal void @start_pass_phuff(ptr noundef %0, i32 noundef %1) #0 {
  %3 = getelementptr inbounds i8, ptr %0, i64 496
  %4 = load ptr, ptr %3, align 8
  %5 = getelementptr inbounds i8, ptr %4, i64 56
  store ptr %0, ptr %5, align 8
  %6 = getelementptr inbounds i8, ptr %4, i64 24
  store i32 %1, ptr %6, align 8
  %7 = getelementptr inbounds i8, ptr %0, i64 412
  %8 = load i32, ptr %7, align 4
  %9 = icmp eq i32 %8, 0
  %10 = zext i1 %9 to i32
  %11 = getelementptr inbounds i8, ptr %0, i64 420
  %12 = load i32, ptr %11, align 4
  %13 = icmp eq i32 %12, 0
  %14 = getelementptr inbounds i8, ptr %4, i64 8
  br i1 %13, label %15, label %18

15:                                               ; preds = %2
  br i1 %9, label %16, label %17

16:                                               ; preds = %15
  store ptr @encode_mcu_DC_first, ptr %14, align 8
  br label %29

17:                                               ; preds = %15
  store ptr @encode_mcu_AC_first, ptr %14, align 8
  br label %29

18:                                               ; preds = %2
  br i1 %9, label %19, label %20

19:                                               ; preds = %18
  store ptr @encode_mcu_DC_refine, ptr %14, align 8
  br label %29

20:                                               ; preds = %18
  store ptr @encode_mcu_AC_refine, ptr %14, align 8
  %21 = getelementptr inbounds i8, ptr %4, i64 96
  %22 = load ptr, ptr %21, align 8
  %23 = icmp eq ptr %22, null
  br i1 %23, label %24, label %29

24:                                               ; preds = %20
  %25 = getelementptr inbounds i8, ptr %0, i64 8
  %26 = load ptr, ptr %25, align 8
  %27 = load ptr, ptr %26, align 8
  %28 = tail call ptr %27(ptr noundef nonnull %0, i32 noundef 1, i64 noundef 1000) #4
  store ptr %28, ptr %21, align 8
  br label %29

29:                                               ; preds = %19, %24, %20, %16, %17
  %.not = icmp eq i32 %1, 0
  %30 = getelementptr inbounds i8, ptr %4, i64 16
  %31 = getelementptr inbounds i8, ptr %0, i64 324
  br i1 %.not, label %32, label %.thread

32:                                               ; preds = %29
  store ptr @finish_pass_phuff, ptr %30, align 8
  %33 = load i32, ptr %31, align 4
  %34 = icmp sgt i32 %33, 0
  br i1 %34, label %.lr.ph.split.us, label %._crit_edge

.thread:                                          ; preds = %29
  store ptr @finish_pass_gather_phuff, ptr %30, align 8
  %35 = load i32, ptr %31, align 4
  %36 = icmp sgt i32 %35, 0
  br i1 %36, label %.lr.ph.split, label %._crit_edge

.lr.ph.split.us:                                  ; preds = %32
  %37 = getelementptr inbounds i8, ptr %0, i64 328
  %38 = getelementptr inbounds i8, ptr %4, i64 64
  %39 = getelementptr inbounds i8, ptr %4, i64 80
  %40 = getelementptr inbounds i8, ptr %4, i64 112
  br i1 %9, label %.lr.ph.split.us.split.us, label %.lr.ph.split.us.split

.lr.ph.split.us.split.us:                         ; preds = %.lr.ph.split.us, %50
  %indvars.iv76 = phi i64 [ %indvars.iv.next77, %50 ], [ 0, %.lr.ph.split.us ]
  %41 = getelementptr inbounds [4 x ptr], ptr %37, i64 0, i64 %indvars.iv76
  %42 = load ptr, ptr %41, align 8
  %43 = getelementptr inbounds [4 x i32], ptr %38, i64 0, i64 %indvars.iv76
  store i32 0, ptr %43, align 4
  %44 = load i32, ptr %11, align 4
  %.not61.us.us = icmp eq i32 %44, 0
  br i1 %.not61.us.us, label %45, label %50

45:                                               ; preds = %.lr.ph.split.us.split.us
  %46 = getelementptr inbounds i8, ptr %42, i64 20
  %47 = load i32, ptr %46, align 4
  %48 = sext i32 %47 to i64
  %49 = getelementptr inbounds [4 x ptr], ptr %40, i64 0, i64 %48
  tail call void @jMkCDerived(ptr noundef nonnull %0, i32 noundef %10, i32 noundef %47, ptr noundef nonnull %49) #4
  br label %50

50:                                               ; preds = %45, %.lr.ph.split.us.split.us
  %indvars.iv.next77 = add nuw nsw i64 %indvars.iv76, 1
  %51 = load i32, ptr %31, align 4
  %52 = sext i32 %51 to i64
  %53 = icmp slt i64 %indvars.iv.next77, %52
  br i1 %53, label %.lr.ph.split.us.split.us, label %._crit_edge, !llvm.loop !6

.lr.ph.split.us.split:                            ; preds = %.lr.ph.split.us, %.lr.ph.split.us.split
  %indvars.iv73 = phi i64 [ %indvars.iv.next74, %.lr.ph.split.us.split ], [ 0, %.lr.ph.split.us ]
  %54 = getelementptr inbounds [4 x ptr], ptr %37, i64 0, i64 %indvars.iv73
  %55 = load ptr, ptr %54, align 8
  %56 = getelementptr inbounds [4 x i32], ptr %38, i64 0, i64 %indvars.iv73
  store i32 0, ptr %56, align 4
  %57 = getelementptr inbounds i8, ptr %55, i64 24
  %58 = load i32, ptr %57, align 8
  store i32 %58, ptr %39, align 8
  %59 = sext i32 %58 to i64
  %60 = getelementptr inbounds [4 x ptr], ptr %40, i64 0, i64 %59
  tail call void @jMkCDerived(ptr noundef nonnull %0, i32 noundef %10, i32 noundef %58, ptr noundef nonnull %60) #4
  %indvars.iv.next74 = add nuw nsw i64 %indvars.iv73, 1
  %61 = load i32, ptr %31, align 4
  %62 = sext i32 %61 to i64
  %63 = icmp slt i64 %indvars.iv.next74, %62
  br i1 %63, label %.lr.ph.split.us.split, label %._crit_edge, !llvm.loop !6

.lr.ph.split:                                     ; preds = %.thread
  %64 = getelementptr inbounds i8, ptr %0, i64 328
  %65 = getelementptr inbounds i8, ptr %4, i64 64
  %66 = getelementptr inbounds i8, ptr %4, i64 80
  %67 = getelementptr inbounds i8, ptr %4, i64 144
  %68 = getelementptr inbounds i8, ptr %0, i64 8
  br i1 %9, label %.lr.ph.split.split.us, label %.lr.ph.split.split

.lr.ph.split.split.us:                            ; preds = %.lr.ph.split, %94
  %indvars.iv70 = phi i64 [ %indvars.iv.next71, %94 ], [ 0, %.lr.ph.split ]
  %69 = getelementptr inbounds [4 x ptr], ptr %64, i64 0, i64 %indvars.iv70
  %70 = load ptr, ptr %69, align 8
  %71 = getelementptr inbounds [4 x i32], ptr %65, i64 0, i64 %indvars.iv70
  store i32 0, ptr %71, align 4
  %72 = load i32, ptr %11, align 4
  %.not61.us64 = icmp eq i32 %72, 0
  br i1 %.not61.us64, label %73, label %94

73:                                               ; preds = %.lr.ph.split.split.us
  %74 = getelementptr inbounds i8, ptr %70, i64 20
  %75 = load i32, ptr %74, align 4
  %or.cond.us = icmp ugt i32 %75, 3
  br i1 %or.cond.us, label %76, label %83

76:                                               ; preds = %73
  %77 = load ptr, ptr %0, align 8
  %78 = getelementptr inbounds i8, ptr %77, i64 40
  store i32 50, ptr %78, align 8
  %79 = load ptr, ptr %0, align 8
  %80 = getelementptr inbounds i8, ptr %79, i64 44
  store i32 %75, ptr %80, align 4
  %81 = load ptr, ptr %0, align 8
  %82 = load ptr, ptr %81, align 8
  tail call void %82(ptr noundef nonnull %0) #4
  br label %83

83:                                               ; preds = %76, %73
  %84 = sext i32 %75 to i64
  %85 = getelementptr inbounds [4 x ptr], ptr %67, i64 0, i64 %84
  %86 = load ptr, ptr %85, align 8
  %87 = icmp eq ptr %86, null
  br i1 %87, label %88, label %92

88:                                               ; preds = %83
  %89 = load ptr, ptr %68, align 8
  %90 = load ptr, ptr %89, align 8
  %91 = tail call ptr %90(ptr noundef nonnull %0, i32 noundef 1, i64 noundef 2056) #4
  store ptr %91, ptr %85, align 8
  br label %92

92:                                               ; preds = %88, %83
  %93 = phi ptr [ %91, %88 ], [ %86, %83 ]
  tail call void @llvm.memset.p0.i64(ptr noundef nonnull align 1 dereferenceable(2056) %93, i8 0, i64 2056, i1 false)
  br label %94

94:                                               ; preds = %92, %.lr.ph.split.split.us
  %indvars.iv.next71 = add nuw nsw i64 %indvars.iv70, 1
  %95 = load i32, ptr %31, align 4
  %96 = sext i32 %95 to i64
  %97 = icmp slt i64 %indvars.iv.next71, %96
  br i1 %97, label %.lr.ph.split.split.us, label %._crit_edge, !llvm.loop !6

.lr.ph.split.split:                               ; preds = %.lr.ph.split, %119
  %indvars.iv = phi i64 [ %indvars.iv.next, %119 ], [ 0, %.lr.ph.split ]
  %98 = getelementptr inbounds [4 x ptr], ptr %64, i64 0, i64 %indvars.iv
  %99 = load ptr, ptr %98, align 8
  %100 = getelementptr inbounds [4 x i32], ptr %65, i64 0, i64 %indvars.iv
  store i32 0, ptr %100, align 4
  %101 = getelementptr inbounds i8, ptr %99, i64 24
  %102 = load i32, ptr %101, align 8
  store i32 %102, ptr %66, align 8
  %or.cond = icmp ugt i32 %102, 3
  br i1 %or.cond, label %103, label %110

103:                                              ; preds = %.lr.ph.split.split
  %104 = load ptr, ptr %0, align 8
  %105 = getelementptr inbounds i8, ptr %104, i64 40
  store i32 50, ptr %105, align 8
  %106 = load ptr, ptr %0, align 8
  %107 = getelementptr inbounds i8, ptr %106, i64 44
  store i32 %102, ptr %107, align 4
  %108 = load ptr, ptr %0, align 8
  %109 = load ptr, ptr %108, align 8
  tail call void %109(ptr noundef nonnull %0) #4
  br label %110

110:                                              ; preds = %.lr.ph.split.split, %103
  %111 = sext i32 %102 to i64
  %112 = getelementptr inbounds [4 x ptr], ptr %67, i64 0, i64 %111
  %113 = load ptr, ptr %112, align 8
  %114 = icmp eq ptr %113, null
  br i1 %114, label %115, label %119

115:                                              ; preds = %110
  %116 = load ptr, ptr %68, align 8
  %117 = load ptr, ptr %116, align 8
  %118 = tail call ptr %117(ptr noundef nonnull %0, i32 noundef 1, i64 noundef 2056) #4
  store ptr %118, ptr %112, align 8
  br label %119

119:                                              ; preds = %115, %110
  %120 = phi ptr [ %118, %115 ], [ %113, %110 ]
  tail call void @llvm.memset.p0.i64(ptr noundef nonnull align 1 dereferenceable(2056) %120, i8 0, i64 2056, i1 false)
  %indvars.iv.next = add nuw nsw i64 %indvars.iv, 1
  %121 = load i32, ptr %31, align 4
  %122 = sext i32 %121 to i64
  %123 = icmp slt i64 %indvars.iv.next, %122
  br i1 %123, label %.lr.ph.split.split, label %._crit_edge, !llvm.loop !6

._crit_edge:                                      ; preds = %119, %94, %.lr.ph.split.us.split, %50, %.thread, %32
  %124 = getelementptr inbounds i8, ptr %4, i64 84
  store i32 0, ptr %124, align 4
  %125 = getelementptr inbounds i8, ptr %4, i64 88
  store i32 0, ptr %125, align 8
  %126 = getelementptr inbounds i8, ptr %4, i64 48
  store i32 0, ptr %126, align 8
  %127 = getelementptr inbounds i8, ptr %4, i64 52
  store i32 0, ptr %127, align 4
  %128 = getelementptr inbounds i8, ptr %0, i64 280
  %129 = load i32, ptr %128, align 8
  %130 = getelementptr inbounds i8, ptr %4, i64 104
  store i32 %129, ptr %130, align 8
  %131 = getelementptr inbounds i8, ptr %4, i64 108
  store i32 0, ptr %131, align 4
  ret void
}